; Function Attrs: mustprogress nofree norecurse nosync nounwind willreturn memory(none) uwtable
define { i64, ptr } @_ZN6evmone17get_error_messageENS_18EOFValidationErrorE(i32 noundef %0) local_unnamed_addr #4 {
  %2 = icmp ult i32 %0, 41
  br i1 %2, label %switch.lookup, label %5

switch.lookup:                                    ; preds = %1
  %3 = zext nneg i32 %0 to i64
  %switch.gep = getelementptr inbounds nuw ptr, ptr @switch.table._ZN6evmonelsERSoNS_18EOFValidationErrorE, i64 %3
  %switch.load = load ptr, ptr %switch.gep, align 8
  %4 = zext nneg i32 %0 to i64
  %switch.gep1 = getelementptr inbounds nuw i64, ptr @switch.table._ZN6evmonelsERSoNS_18EOFValidationErrorE.121, i64 %4
  %switch.load2 = load i64, ptr %switch.gep1, align 8
  br label %5

5:                                                ; preds = %1, %switch.lookup
  %.sroa.43.0 = phi ptr [ %switch.load, %switch.lookup ], [ @.str.41, %1 ]
  %.sroa.0.0 = phi i64 [ %switch.load2, %switch.lookup ], [ 9, %1 ]
  %.fca.0.insert = insertvalue { i64, ptr } poison, i64 %.sroa.0.0, 0
  %.fca.1.insert = insertvalue { i64, ptr } %.fca.0.insert, ptr %.sroa.43.0, 1
  ret { i64, ptr } %.fca.1.insert
}